target datalayout = "e-m:e-p270:32:32-p271:32:32-p272:64:64-i64:64-i128:128-f80:128-n8:16:32:64-S128"
target triple = "x86_64-pc-linux-gnu"

%"class.absl::Span" = type { ptr, i64 }

@.str = private unnamed_addr constant [13 x i8] c"pos > size()\00", align 1

; Function Attrs: mustprogress nounwind uwtable
define linkonce_odr dso_local noundef ptr @_ZNK4absl4SpanIcE4dataEv(ptr noundef nonnull align 8 dereferenceable(16) %0) #2 comdat align 2 {
  %2 = alloca ptr, align 8
  store ptr %0, ptr %2, align 8, !tbaa !8
  %3 = load ptr, ptr %2, align 8
  %4 = getelementptr inbounds nuw %"class.absl::Span", ptr %3, i32 0, i32 0
  %5 = load ptr, ptr %4, align 8, !tbaa !20
  ret ptr %5
}

; Function Attrs: mustprogress nounwind uwtable
define linkonce_odr dso_local void @_ZN4absl4SpanIcE13remove_prefixEm(ptr noundef nonnull align 8 dereferenceable(16) %0, i64 noundef %1) #2 comdat align 2 {
  %3 = alloca ptr, align 8
  %4 = alloca i64, align 8
  store ptr %0, ptr %3, align 8, !tbaa !8
  store i64 %1, ptr %4, align 8, !tbaa !4
  %5 = load ptr, ptr %3, align 8
  %6 = load i64, ptr %4, align 8, !tbaa !4
  %7 = getelementptr inbounds nuw %"class.absl::Span", ptr %5, i32 0, i32 0
  %8 = load ptr, ptr %7, align 8, !tbaa !20
  %9 = getelementptr inbounds nuw i8, ptr %8, i64 %6
  store ptr %9, ptr %7, align 8, !tbaa !20
  %10 = load i64, ptr %4, align 8, !tbaa !4
  %11 = getelementptr inbounds nuw %"class.absl::Span", ptr %5, i32 0, i32 1
  %12 = load i64, ptr %11, align 8, !tbaa !13
  %13 = sub i64 %12, %10
  store i64 %13, ptr %11, align 8, !tbaa !13
  ret void
}

; Function Attrs: mustprogress nounwind uwtable
define linkonce_odr dso_local noundef nonnull align 1 dereferenceable(1) ptr @_ZNK4absl4SpanIcEixEm(ptr noundef nonnull align 8 dereferenceable(16) %0, i64 noundef %1) #2 comdat align 2 {
  %3 = alloca ptr, align 8
  %4 = alloca i64, align 8
  store ptr %0, ptr %3, align 8, !tbaa !8
  store i64 %1, ptr %4, align 8, !tbaa !4
  %5 = load ptr, ptr %3, align 8
  %6 = getelementptr inbounds nuw %"class.absl::Span", ptr %5, i32 0, i32 0
  %7 = load ptr, ptr %6, align 8, !tbaa !20
  %8 = load i64, ptr %4, align 8, !tbaa !4
  %9 = getelementptr inbounds nuw i8, ptr %7, i64 %8
  ret ptr %9
}

; Function Attrs: mustprogress nounwind uwtable
define linkonce_odr dso_local void @_ZN4absl4SpanIcEC2EPcm(ptr noundef nonnull align 8 dereferenceable(16) %0, ptr noundef %1, i64 noundef %2) unnamed_addr #2 comdat align 2 {
  %4 = alloca ptr, align 8
  %5 = alloca ptr, align 8
  %6 = alloca i64, align 8
  store ptr %0, ptr %4, align 8, !tbaa !8
  store ptr %1, ptr %5, align 8, !tbaa !38
  store i64 %2, ptr %6, align 8, !tbaa !4
  %7 = load ptr, ptr %4, align 8
  %8 = getelementptr inbounds nuw %"class.absl::Span", ptr %7, i32 0, i32 0
  %9 = load ptr, ptr %5, align 8, !tbaa !38
  store ptr %9, ptr %8, align 8, !tbaa !20
  %10 = getelementptr inbounds nuw %"class.absl::Span", ptr %7, i32 0, i32 1
  %11 = load i64, ptr %6, align 8, !tbaa !4
  store i64 %11, ptr %10, align 8, !tbaa !13
  ret void
}

; Function Attrs: mustprogress uwtable
define linkonce_odr dso_local { ptr, i64 } @_ZNK4absl4SpanIcE7subspanEmm(ptr noundef nonnull align 8 dereferenceable(16) %0, i64 noundef %1, i64 noundef %2) #0 comdat align 2 {
  %4 = alloca %"class.absl::Span", align 8
  %5 = alloca ptr, align 8
  %6 = alloca i64, align 8
  %7 = alloca i64, align 8
  %8 = alloca i64, align 8
  store ptr %0, ptr %5, align 8, !tbaa !8
  store i64 %1, ptr %6, align 8, !tbaa !4
  store i64 %2, ptr %7, align 8, !tbaa !4
  %9 = load ptr, ptr %5, align 8
  %10 = load i64, ptr %6, align 8, !tbaa !4
  %11 = call noundef i64 @_ZNK4absl4SpanIcE4sizeEv(ptr noundef nonnull align 8 dereferenceable(16) %9) #6
  %12 = icmp ule i64 %10, %11
  call void @llvm.lifetime.start.p0(i64 8, ptr %8) #6
  br i1 %12, label %13, label %22

13:                                               ; preds = %3
  %14 = call noundef ptr @_ZNK4absl4SpanIcE4dataEv(ptr noundef nonnull align 8 dereferenceable(16) %9) #6
  %15 = load i64, ptr %6, align 8, !tbaa !4
  %16 = getelementptr inbounds nuw i8, ptr %14, i64 %15
  %17 = call noundef i64 @_ZNK4absl4SpanIcE4sizeEv(ptr noundef nonnull align 8 dereferenceable(16) %9) #6
  %18 = load i64, ptr %6, align 8, !tbaa !4
  %19 = sub i64 %17, %18
  store i64 %19, ptr %8, align 8, !tbaa !4
  %20 = call noundef nonnull align 8 dereferenceable(8) ptr @_ZSt3minImERKT_S2_S2_(ptr noundef nonnull align 8 dereferenceable(8) %8, ptr noundef nonnull align 8 dereferenceable(8) %7)
  %21 = load i64, ptr %20, align 8, !tbaa !4
  call void @_ZN4absl4SpanIcEC2EPcm(ptr noundef nonnull align 8 dereferenceable(16) %4, ptr noundef %16, i64 noundef %21) #6
  br label %24

22:                                               ; preds = %3
  call void @_ZN4absl13base_internal18ThrowStdOutOfRangeEPKc(ptr noundef @.str) #7
  unreachable

23:                                               ; No predecessors!
  call void @_ZN4absl4SpanIcEC2Ev(ptr noundef nonnull align 8 dereferenceable(16) %4) #6
  br label %24

24:                                               ; preds = %23, %13
  call void @llvm.lifetime.end.p0(i64 8, ptr %8) #6
  %25 = load { ptr, i64 }, ptr %4, align 8
  ret { ptr, i64 } %25
}

; Function Attrs: mustprogress nounwind uwtable
define internal void @_ZN4absl12log_internal12_GLOBAL__N_115EncodeRawVarintEmmPNS_4SpanIcEE(i64 noundef %0, i64 noundef %1, ptr noundef %2) #2 {
  %4 = alloca i64, align 8
  %5 = alloca i64, align 8
  %6 = alloca ptr, align 8
  %7 = alloca i64, align 8
  store i64 %0, ptr %4, align 8, !tbaa !4
  store i64 %1, ptr %5, align 8, !tbaa !4
  store ptr %2, ptr %6, align 8, !tbaa !8
  call void @llvm.lifetime.start.p0(i64 8, ptr %7) #6
  store i64 0, ptr %7, align 8, !tbaa !4
  br label %8

8:                                                ; preds = %29, %3
  %9 = load i64, ptr %7, align 8, !tbaa !4
  %10 = load i64, ptr %5, align 8, !tbaa !4
  %11 = icmp ult i64 %9, %10
  br i1 %11, label %13, label %12

12:                                               ; preds = %8
  call void @llvm.lifetime.end.p0(i64 8, ptr %7) #6
  br label %32

13:                                               ; preds = %8
  %14 = load i64, ptr %4, align 8, !tbaa !4
  %15 = and i64 %14, 127
  %16 = load i64, ptr %7, align 8, !tbaa !4
  %17 = add i64 %16, 1
  %18 = load i64, ptr %5, align 8, !tbaa !4
  %19 = icmp eq i64 %17, %18
  %20 = select i1 %19, i32 0, i32 128
  %21 = sext i32 %20 to i64
  %22 = or i64 %15, %21
  %23 = trunc i64 %22 to i8
  %24 = load ptr, ptr %6, align 8, !tbaa !8
  %25 = load i64, ptr %7, align 8, !tbaa !4
  %26 = call noundef nonnull align 1 dereferenceable(1) ptr @_ZNK4absl4SpanIcEixEm(ptr noundef nonnull align 8 dereferenceable(16) %24, i64 noundef %25) #6
  store i8 %23, ptr %26, align 1, !tbaa !16
  %27 = load i64, ptr %4, align 8, !tbaa !4
  %28 = lshr i64 %27, 7
  store i64 %28, ptr %4, align 8, !tbaa !4
  br label %29

29:                                               ; preds = %13
  %30 = load i64, ptr %7, align 8, !tbaa !4
  %31 = add i64 %30, 1
  store i64 %31, ptr %7, align 8, !tbaa !4
  br label %8, !llvm.loop !17

32:                                               ; preds = %12
  %33 = load ptr, ptr %6, align 8, !tbaa !8
  %34 = load i64, ptr %5, align 8, !tbaa !4
  call void @_ZN4absl4SpanIcE13remove_prefixEm(ptr noundef nonnull align 8 dereferenceable(16) %33, i64 noundef %34) #6
  ret void
}

; Function Attrs: mustprogress nounwind uwtable
define linkonce_odr dso_local void @_ZN4absl4SpanIcEC2Ev(ptr noundef nonnull align 8 dereferenceable(16) %0) unnamed_addr #2 comdat align 2 {
  %2 = alloca ptr, align 8
  store ptr %0, ptr %2, align 8, !tbaa !8
  %3 = load ptr, ptr %2, align 8
  call void @_ZN4absl4SpanIcEC2EPcm(ptr noundef nonnull align 8 dereferenceable(16) %3, ptr noundef null, i64 noundef 0) #6
  ret void
}

; Function Attrs: mustprogress nounwind uwtable
define linkonce_odr dso_local void @_ZN4absl4SpanIcE13remove_suffixEm(ptr noundef nonnull align 8 dereferenceable(16) %0, i64 noundef %1) #2 comdat align 2 {
  %3 = alloca ptr, align 8
  %4 = alloca i64, align 8
  store ptr %0, ptr %3, align 8, !tbaa !8
  store i64 %1, ptr %4, align 8, !tbaa !4
  %5 = load ptr, ptr %3, align 8
  %6 = load i64, ptr %4, align 8, !tbaa !4
  %7 = getelementptr inbounds nuw %"class.absl::Span", ptr %5, i32 0, i32 1
  %8 = load i64, ptr %7, align 8, !tbaa !13
  %9 = sub i64 %8, %6
  store i64 %9, ptr %7, align 8, !tbaa !13
  ret void
}

; Function Attrs: inlinehint mustprogress nounwind uwtable
define linkonce_odr dso_local noundef nonnull align 8 dereferenceable(8) ptr @_ZSt3minImERKT_S2_S2_(ptr noundef nonnull align 8 dereferenceable(8) %0, ptr noundef nonnull align 8 dereferenceable(8) %1) #4 comdat {
  %3 = alloca ptr, align 8
  %4 = alloca ptr, align 8
  %5 = alloca ptr, align 8
  store ptr %0, ptr %4, align 8, !tbaa !29
  store ptr %1, ptr %5, align 8, !tbaa !29
  %6 = load ptr, ptr %5, align 8, !tbaa !29
  %7 = load i64, ptr %6, align 8, !tbaa !4
  %8 = load ptr, ptr %4, align 8, !tbaa !29
  %9 = load i64, ptr %8, align 8, !tbaa !4
  %10 = icmp ult i64 %7, %9
  br i1 %10, label %11, label %13

11:                                               ; preds = %2
  %12 = load ptr, ptr %5, align 8, !tbaa !29
  store ptr %12, ptr %3, align 8
  br label %15

13:                                               ; preds = %2
  %14 = load ptr, ptr %4, align 8, !tbaa !29
  store ptr %14, ptr %3, align 8
  br label %15

15:                                               ; preds = %13, %11
  %16 = load ptr, ptr %3, align 8
  ret ptr %16
}

; Function Attrs: mustprogress nounwind uwtable
define linkonce_odr dso_local noundef i64 @_ZNK4absl4SpanIcE4sizeEv(ptr noundef nonnull align 8 dereferenceable(16) %0) #2 comdat align 2 {
  %2 = alloca ptr, align 8
  store ptr %0, ptr %2, align 8, !tbaa !8
  %3 = load ptr, ptr %2, align 8
  %4 = getelementptr inbounds nuw %"class.absl::Span", ptr %3, i32 0, i32 1
  %5 = load i64, ptr %4, align 8, !tbaa !13
  ret i64 %5
}

; Function Attrs: mustprogress uwtable
define linkonce_odr dso_local noundef i64 @_ZN4absl12log_internal10VarintSizeEm(i64 noundef %0) #0 comdat {
  %2 = alloca i64, align 8
  store i64 %0, ptr %2, align 8, !tbaa !4
  %3 = load i64, ptr %2, align 8, !tbaa !4
  %4 = icmp ult i64 %3, 128
  br i1 %4, label %5, label %6

5:                                                ; preds = %1
  br label %11

6:                                                ; preds = %1
  %7 = load i64, ptr %2, align 8, !tbaa !4
  %8 = lshr i64 %7, 7
  %9 = call noundef i64 @_ZN4absl12log_internal10VarintSizeEm(i64 noundef %8)
  %10 = add i64 1, %9
  br label %11

11:                                               ; preds = %6, %5
  %12 = phi i64 [ 1, %5 ], [ %10, %6 ]
  ret i64 %12
}

; Function Attrs: mustprogress nounwind uwtable
define linkonce_odr dso_local noundef i64 @_ZN4absl12log_internal11MakeTagTypeEmNS0_8WireTypeE(i64 noundef %0, i64 noundef %1) #2 comdat {
  %3 = alloca i64, align 8
  %4 = alloca i64, align 8
  store i64 %0, ptr %3, align 8, !tbaa !4
  store i64 %1, ptr %4, align 8, !tbaa !11
  %5 = load i64, ptr %3, align 8, !tbaa !4
  %6 = shl i64 %5, 3
  %7 = load i64, ptr %4, align 8, !tbaa !11
  %8 = or i64 %6, %7
  ret i64 %8
}

; Function Attrs: mustprogress uwtable
define dso_local { ptr, i64 } @_ZN4absl12log_internal18EncodeMessageStartEmmPNS_4SpanIcEE(i64 noundef %0, i64 noundef %1, ptr noundef %2) #0 {
  %4 = alloca %"class.absl::Span", align 8
  %5 = alloca i64, align 8
  %6 = alloca i64, align 8
  %7 = alloca ptr, align 8
  %8 = alloca i64, align 8
  %9 = alloca i64, align 8
  %10 = alloca i64, align 8
  %11 = alloca i64, align 8
  %12 = alloca i32, align 4
  store i64 %0, ptr %5, align 8, !tbaa !4
  store i64 %1, ptr %6, align 8, !tbaa !4
  store ptr %2, ptr %7, align 8, !tbaa !8
  call void @llvm.lifetime.start.p0(i64 8, ptr %8) #6
  %13 = load i64, ptr %5, align 8, !tbaa !4
  %14 = call noundef i64 @_ZN4absl12log_internal11MakeTagTypeEmNS0_8WireTypeE(i64 noundef %13, i64 noundef 2)
  store i64 %14, ptr %8, align 8, !tbaa !4
  call void @llvm.lifetime.start.p0(i64 8, ptr %9) #6
  %15 = load i64, ptr %8, align 8, !tbaa !4
  %16 = call noundef i64 @_ZN4absl12log_internal10VarintSizeEm(i64 noundef %15)
  store i64 %16, ptr %9, align 8, !tbaa !4
  call void @llvm.lifetime.start.p0(i64 8, ptr %10) #6
  %17 = load ptr, ptr %7, align 8, !tbaa !8
  %18 = call noundef i64 @_ZNK4absl4SpanIcE4sizeEv(ptr noundef nonnull align 8 dereferenceable(16) %17) #6
  store i64 %18, ptr %10, align 8, !tbaa !4
  %19 = call noundef nonnull align 8 dereferenceable(8) ptr @_ZSt3minImERKT_S2_S2_(ptr noundef nonnull align 8 dereferenceable(8) %6, ptr noundef nonnull align 8 dereferenceable(8) %10)
  %20 = load i64, ptr %19, align 8, !tbaa !4
  store i64 %20, ptr %6, align 8, !tbaa !4
  call void @llvm.lifetime.end.p0(i64 8, ptr %10) #6
  call void @llvm.lifetime.start.p0(i64 8, ptr %11) #6
  %21 = load i64, ptr %6, align 8, !tbaa !4
  %22 = call noundef i64 @_ZN4absl12log_internal10VarintSizeEm(i64 noundef %21)
  store i64 %22, ptr %11, align 8, !tbaa !4
  %23 = load i64, ptr %9, align 8, !tbaa !4
  %24 = load i64, ptr %11, align 8, !tbaa !4
  %25 = add i64 %23, %24
  %26 = load ptr, ptr %7, align 8, !tbaa !8
  %27 = call noundef i64 @_ZNK4absl4SpanIcE4sizeEv(ptr noundef nonnull align 8 dereferenceable(16) %26) #6
  %28 = icmp ugt i64 %25, %27
  br i1 %28, label %29, label %33

29:                                               ; preds = %3
  %30 = load ptr, ptr %7, align 8, !tbaa !8
  %31 = load ptr, ptr %7, align 8, !tbaa !8
  %32 = call noundef i64 @_ZNK4absl4SpanIcE4sizeEv(ptr noundef nonnull align 8 dereferenceable(16) %31) #6
  call void @_ZN4absl4SpanIcE13remove_suffixEm(ptr noundef nonnull align 8 dereferenceable(16) %30, i64 noundef %32) #6
  call void @_ZN4absl4SpanIcEC2Ev(ptr noundef nonnull align 8 dereferenceable(16) %4) #6
  store i32 1, ptr %12, align 4
  br label %46

33:                                               ; preds = %3
  %34 = load i64, ptr %8, align 8, !tbaa !4
  %35 = load i64, ptr %9, align 8, !tbaa !4
  %36 = load ptr, ptr %7, align 8, !tbaa !8
  call void @_ZN4absl12log_internal12_GLOBAL__N_115EncodeRawVarintEmmPNS_4SpanIcEE(i64 noundef %34, i64 noundef %35, ptr noundef %36)
  %37 = load ptr, ptr %7, align 8, !tbaa !8
  %38 = load i64, ptr %11, align 8, !tbaa !4
  %39 = call { ptr, i64 } @_ZNK4absl4SpanIcE7subspanEmm(ptr noundef nonnull align 8 dereferenceable(16) %37, i64 noundef 0, i64 noundef %38)
  %40 = getelementptr inbounds nuw { ptr, i64 }, ptr %4, i32 0, i32 0
  %41 = extractvalue { ptr, i64 } %39, 0
  store ptr %41, ptr %40, align 8
  %42 = getelementptr inbounds nuw { ptr, i64 }, ptr %4, i32 0, i32 1
  %43 = extractvalue { ptr, i64 } %39, 1
  store i64 %43, ptr %42, align 8
  %44 = load i64, ptr %11, align 8, !tbaa !4
  %45 = load ptr, ptr %7, align 8, !tbaa !8
  call void @_ZN4absl12log_internal12_GLOBAL__N_115EncodeRawVarintEmmPNS_4SpanIcEE(i64 noundef 0, i64 noundef %44, ptr noundef %45)
  store i32 1, ptr %12, align 4
  br label %46

46:                                               ; preds = %33, %29
  call void @llvm.lifetime.end.p0(i64 8, ptr %11) #6
  call void @llvm.lifetime.end.p0(i64 8, ptr %9) #6
  call void @llvm.lifetime.end.p0(i64 8, ptr %8) #6
  %47 = load { ptr, i64 }, ptr %4, align 8
  ret { ptr, i64 } %47
}