; Function Attrs: mustprogress nofree norecurse nosync nounwind memory(write, argmem: readwrite, inaccessiblemem: none) uwtable
define dso_local { ptr, i64 } @_ZN4absl12log_internal18EncodeMessageStartEmmPNS_4SpanIcEE(i64 noundef %0, i64 noundef %1, ptr noundef captures(none) %2) local_unnamed_addr #0 {
  %4 = shl i64 %0, 3
  %5 = or disjoint i64 %4, 2
  %6 = icmp ult i64 %4, 128
  br i1 %6, label %_ZN4absl12log_internal10VarintSizeEm.exit, label %tailrecurse.i

tailrecurse.i:                                    ; preds = %3, %tailrecurse.i
  %.tr3.i = phi i64 [ %7, %tailrecurse.i ], [ %5, %3 ]
  %accumulator.tr2.i = phi i64 [ %8, %tailrecurse.i ], [ 0, %3 ]
  %7 = lshr i64 %.tr3.i, 7
  %8 = add nuw nsw i64 %accumulator.tr2.i, 1
  %9 = icmp ult i64 %.tr3.i, 16384
  br i1 %9, label %tailrecurse._crit_edge.loopexit.i, label %tailrecurse.i

tailrecurse._crit_edge.loopexit.i:                ; preds = %tailrecurse.i
  %10 = add nuw i64 %accumulator.tr2.i, 2
  br label %_ZN4absl12log_internal10VarintSizeEm.exit

_ZN4absl12log_internal10VarintSizeEm.exit:        ; preds = %3, %tailrecurse._crit_edge.loopexit.i
  %accumulator.tr.lcssa.i = phi i64 [ 1, %3 ], [ %10, %tailrecurse._crit_edge.loopexit.i ]
  %11 = getelementptr inbounds nuw i8, ptr %2, i64 8
  %12 = load i64, ptr %11, align 8, !tbaa !4
  %.sroa.speculated = tail call i64 @llvm.umin.i64(i64 %12, i64 %1)
  %13 = icmp ult i64 %.sroa.speculated, 128
  br i1 %13, label %_ZN4absl12log_internal10VarintSizeEm.exit19, label %tailrecurse.i14

tailrecurse.i14:                                  ; preds = %_ZN4absl12log_internal10VarintSizeEm.exit, %tailrecurse.i14
  %.tr3.i15 = phi i64 [ %14, %tailrecurse.i14 ], [ %.sroa.speculated, %_ZN4absl12log_internal10VarintSizeEm.exit ]
  %accumulator.tr2.i16 = phi i64 [ %15, %tailrecurse.i14 ], [ 0, %_ZN4absl12log_internal10VarintSizeEm.exit ]
  %14 = lshr i64 %.tr3.i15, 7
  %15 = add nuw nsw i64 %accumulator.tr2.i16, 1
  %16 = icmp ult i64 %.tr3.i15, 16384
  br i1 %16, label %tailrecurse._crit_edge.loopexit.i17, label %tailrecurse.i14

tailrecurse._crit_edge.loopexit.i17:              ; preds = %tailrecurse.i14
  %17 = add nuw i64 %accumulator.tr2.i16, 2
  br label %_ZN4absl12log_internal10VarintSizeEm.exit19

_ZN4absl12log_internal10VarintSizeEm.exit19:      ; preds = %_ZN4absl12log_internal10VarintSizeEm.exit, %tailrecurse._crit_edge.loopexit.i17
  %accumulator.tr.lcssa.i18 = phi i64 [ 1, %_ZN4absl12log_internal10VarintSizeEm.exit ], [ %17, %tailrecurse._crit_edge.loopexit.i17 ]
  %18 = add i64 %accumulator.tr.lcssa.i18, %accumulator.tr.lcssa.i
  %19 = icmp ugt i64 %18, %12
  br i1 %19, label %42, label %.lr.ph.i

.lr.ph.i:                                         ; preds = %_ZN4absl12log_internal10VarintSizeEm.exit19, %.lr.ph.i
  %.013.i = phi i64 [ %21, %.lr.ph.i ], [ 0, %_ZN4absl12log_internal10VarintSizeEm.exit19 ]
  %.01012.i = phi i64 [ %28, %.lr.ph.i ], [ %5, %_ZN4absl12log_internal10VarintSizeEm.exit19 ]
  %20 = and i64 %.01012.i, 127
  %21 = add nuw nsw i64 %.013.i, 1
  %22 = icmp eq i64 %21, %accumulator.tr.lcssa.i
  %23 = select i1 %22, i64 0, i64 128
  %24 = or disjoint i64 %23, %20
  %25 = trunc nuw i64 %24 to i8
  %26 = load ptr, ptr %2, align 8, !tbaa !11
  %27 = getelementptr inbounds nuw i8, ptr %26, i64 %.013.i
  store i8 %25, ptr %27, align 1, !tbaa !12
  %28 = lshr i64 %.01012.i, 7
  br i1 %22, label %_ZN4absl12log_internal12_GLOBAL__N_115EncodeRawVarintEmmPNS_4SpanIcEE.exit, label %.lr.ph.i, !llvm.loop !13

_ZN4absl12log_internal12_GLOBAL__N_115EncodeRawVarintEmmPNS_4SpanIcEE.exit: ; preds = %.lr.ph.i
  %29 = load ptr, ptr %2, align 8, !tbaa !11
  %30 = getelementptr inbounds nuw i8, ptr %29, i64 %accumulator.tr.lcssa.i
  store ptr %30, ptr %2, align 8, !tbaa !11
  %31 = load i64, ptr %11, align 8, !tbaa !4
  %32 = sub i64 %31, %accumulator.tr.lcssa.i
  store i64 %32, ptr %11, align 8, !tbaa !4
  br label %.lr.ph.i20

.lr.ph.i20:                                       ; preds = %_ZN4absl12log_internal12_GLOBAL__N_115EncodeRawVarintEmmPNS_4SpanIcEE.exit, %.lr.ph.i20
  %.013.i21 = phi i64 [ %33, %.lr.ph.i20 ], [ 0, %_ZN4absl12log_internal12_GLOBAL__N_115EncodeRawVarintEmmPNS_4SpanIcEE.exit ]
  %33 = add nuw nsw i64 %.013.i21, 1
  %34 = icmp eq i64 %33, %accumulator.tr.lcssa.i18
  %35 = select i1 %34, i8 0, i8 -128
  %36 = load ptr, ptr %2, align 8, !tbaa !11
  %37 = getelementptr inbounds nuw i8, ptr %36, i64 %.013.i21
  store i8 %35, ptr %37, align 1, !tbaa !12
  br i1 %34, label %_ZN4absl12log_internal12_GLOBAL__N_115EncodeRawVarintEmmPNS_4SpanIcEE.exit24, label %.lr.ph.i20, !llvm.loop !13

_ZN4absl12log_internal12_GLOBAL__N_115EncodeRawVarintEmmPNS_4SpanIcEE.exit24: ; preds = %.lr.ph.i20
  %.sroa.speculated.i = tail call i64 @llvm.umin.i64(i64 %accumulator.tr.lcssa.i18, i64 %32)
  %38 = load ptr, ptr %2, align 8, !tbaa !11
  %39 = getelementptr inbounds nuw i8, ptr %38, i64 %accumulator.tr.lcssa.i18
  store ptr %39, ptr %2, align 8, !tbaa !11
  %40 = load i64, ptr %11, align 8, !tbaa !4
  %41 = sub i64 %40, %accumulator.tr.lcssa.i18
  br label %42

42:                                               ; preds = %_ZN4absl12log_internal10VarintSizeEm.exit19, %_ZN4absl12log_internal12_GLOBAL__N_115EncodeRawVarintEmmPNS_4SpanIcEE.exit24
  %storemerge = phi i64 [ %41, %_ZN4absl12log_internal12_GLOBAL__N_115EncodeRawVarintEmmPNS_4SpanIcEE.exit24 ], [ 0, %_ZN4absl12log_internal10VarintSizeEm.exit19 ]
  %.sroa.3.0 = phi i64 [ %.sroa.speculated.i, %_ZN4absl12log_internal12_GLOBAL__N_115EncodeRawVarintEmmPNS_4SpanIcEE.exit24 ], [ 0, %_ZN4absl12log_internal10VarintSizeEm.exit19 ]
  %.sroa.0.0 = phi ptr [ %30, %_ZN4absl12log_internal12_GLOBAL__N_115EncodeRawVarintEmmPNS_4SpanIcEE.exit24 ], [ null, %_ZN4absl12log_internal10VarintSizeEm.exit19 ]
  store i64 %storemerge, ptr %11, align 8, !tbaa !4
  %.fca.0.insert = insertvalue { ptr, i64 } poison, ptr %.sroa.0.0, 0
  %.fca.1.insert = insertvalue { ptr, i64 } %.fca.0.insert, i64 %.sroa.3.0, 1
  ret { ptr, i64 } %.fca.1.insert
}